; Function Attrs: mustprogress uwtable
define void @_ZN19MoleculeInformation11initMolInfoEv(ptr noundef nonnull align 8 dereferenceable(7680) %0) local_unnamed_addr #1 align 2 personality ptr @__gxx_personality_v0 {
  %2 = getelementptr inbounds i8, ptr %0, i64 88
  tail call void @_Z10init_blockP7t_block(ptr noundef nonnull %2)
  %3 = getelementptr inbounds i8, ptr %0, i64 112
  %4 = getelementptr inbounds i8, ptr %0, i64 120
  %5 = load ptr, ptr %4, align 8
  %6 = load ptr, ptr %3, align 8
  %7 = ptrtoint ptr %5 to i64
  %8 = ptrtoint ptr %6 to i64
  %9 = sub i64 %7, %8
  %10 = ashr exact i64 %9, 2
  %11 = icmp eq ptr %5, %6
  br i1 %11, label %12, label %14

12:                                               ; preds = %1
  %13 = sub nuw nsw i64 1, %10
  tail call void @_ZNSt6vectorIiSaIiEE17_M_default_appendEm(ptr noundef nonnull align 8 dereferenceable(24) %3, i64 noundef %13)
  br label %_ZNSt6vectorIiSaIiEE6resizeEm.exit.i

14:                                               ; preds = %1
  %15 = icmp ugt i64 %10, 1
  br i1 %15, label %16, label %_ZNSt6vectorIiSaIiEE6resizeEm.exit.i

16:                                               ; preds = %14
  %17 = getelementptr inbounds i8, ptr %6, i64 4
  %.not.i.i.i = icmp eq ptr %5, %17
  br i1 %.not.i.i.i, label %_ZNSt6vectorIiSaIiEE6resizeEm.exit.i, label %18

18:                                               ; preds = %16
  store ptr %17, ptr %4, align 8
  br label %_ZNSt6vectorIiSaIiEE6resizeEm.exit.i

_ZNSt6vectorIiSaIiEE6resizeEm.exit.i:             ; preds = %18, %16, %14, %12
  %19 = getelementptr inbounds i8, ptr %0, i64 136
  %20 = load ptr, ptr %19, align 8
  %21 = getelementptr inbounds i8, ptr %0, i64 144
  %22 = load ptr, ptr %21, align 8
  %.not.i.i1.i = icmp eq ptr %22, %20
  br i1 %.not.i.i1.i, label %_ZN3gmx11ListOfListsIiE5clearEv.exit, label %23

23:                                               ; preds = %_ZNSt6vectorIiSaIiEE6resizeEm.exit.i
  store ptr %20, ptr %21, align 8
  br label %_ZN3gmx11ListOfListsIiE5clearEv.exit

_ZN3gmx11ListOfListsIiE5clearEv.exit:             ; preds = %_ZNSt6vectorIiSaIiEE6resizeEm.exit.i, %23
  %24 = getelementptr inbounds i8, ptr %0, i64 16
  tail call void @_Z12init_t_atomsP7t_atomsib(ptr noundef nonnull %24, i32 noundef 0, i1 noundef zeroext false)
  ret void
}